target datalayout = "e-m:e-p270:32:32-p271:32:32-p272:64:64-i64:64-i128:128-f80:128-n8:16:32:64-S128"
target triple = "x86_64-pc-linux-gnu"

%class.ReplacedNodes = type { ptr }
%class.GrowableArrayBase = type { i32, i32 }
%class.GrowableArrayView = type { %class.GrowableArrayBase, ptr }
%"class.ReplacedNodes::ReplacedNode" = type { ptr, ptr }
%class.Node = type <{ ptr, ptr, ptr, i32, i32, i32, i32, i32, i32, i32, [4 x i8] }>

@.str = private unnamed_addr constant [17 x i8] c"replaced nodes: \00", align 1
@.str.4 = private unnamed_addr constant [7 x i8] c"%d->%d\00", align 1
@.str.5 = private unnamed_addr constant [2 x i8] c",\00", align 1

; Function Attrs: mustprogress nounwind uwtable
define linkonce_odr hidden noundef ptr @_ZNK13ReplacedNodes12ReplacedNode8improvedEv(ptr noundef nonnull align 8 dereferenceable(16) %0) #1 comdat align 2 {
  %2 = alloca ptr, align 8
  store ptr %0, ptr %2, align 8
  %3 = load ptr, ptr %2, align 8
  %4 = getelementptr inbounds %"class.ReplacedNodes::ReplacedNode", ptr %3, i32 0, i32 1
  %5 = load ptr, ptr %4, align 8
  ret ptr %5
}

; Function Attrs: mustprogress nounwind uwtable
define linkonce_odr hidden noundef ptr @_ZNK13ReplacedNodes12ReplacedNode7initialEv(ptr noundef nonnull align 8 dereferenceable(16) %0) #1 comdat align 2 {
  %2 = alloca ptr, align 8
  store ptr %0, ptr %2, align 8
  %3 = load ptr, ptr %2, align 8
  %4 = getelementptr inbounds %"class.ReplacedNodes::ReplacedNode", ptr %3, i32 0, i32 0
  %5 = load ptr, ptr %4, align 8
  ret ptr %5
}

; Function Attrs: mustprogress nounwind uwtable
define linkonce_odr hidden noundef nonnull align 8 dereferenceable(16) ptr @_ZN17GrowableArrayViewIN13ReplacedNodes12ReplacedNodeEE2atEi(ptr noundef nonnull align 8 dereferenceable(16) %0, i32 noundef %1) #1 comdat align 2 {
  %3 = alloca ptr, align 8
  %4 = alloca i32, align 4
  store ptr %0, ptr %3, align 8
  store i32 %1, ptr %4, align 4
  %5 = load ptr, ptr %3, align 8
  %6 = getelementptr inbounds %class.GrowableArrayView, ptr %5, i32 0, i32 1
  %7 = load ptr, ptr %6, align 8
  %8 = load i32, ptr %4, align 4
  %9 = sext i32 %8 to i64
  %10 = getelementptr inbounds %"class.ReplacedNodes::ReplacedNode", ptr %7, i64 %9
  ret ptr %10
}

; Function Attrs: mustprogress nounwind uwtable
define linkonce_odr hidden noundef i32 @_ZNK17GrowableArrayBase6lengthEv(ptr noundef nonnull align 4 dereferenceable(8) %0) #1 comdat align 2 {
  %2 = alloca ptr, align 8
  store ptr %0, ptr %2, align 8
  %3 = load ptr, ptr %2, align 8
  %4 = getelementptr inbounds %class.GrowableArrayBase, ptr %3, i32 0, i32 0
  %5 = load i32, ptr %4, align 4
  ret i32 %5
}

; Function Attrs: mustprogress nounwind uwtable
define hidden noundef zeroext i1 @_ZNK13ReplacedNodes8is_emptyEv(ptr noundef nonnull align 8 dereferenceable(8) %0) #1 align 2 {
  %2 = alloca ptr, align 8
  store ptr %0, ptr %2, align 8
  %3 = load ptr, ptr %2, align 8
  %4 = getelementptr inbounds %class.ReplacedNodes, ptr %3, i32 0, i32 0
  %5 = load ptr, ptr %4, align 8
  %6 = icmp eq ptr %5, null
  br i1 %6, label %12, label %7

7:                                                ; preds = %1
  %8 = getelementptr inbounds %class.ReplacedNodes, ptr %3, i32 0, i32 0
  %9 = load ptr, ptr %8, align 8
  %10 = call noundef i32 @_ZNK17GrowableArrayBase6lengthEv(ptr noundef nonnull align 4 dereferenceable(8) %9)
  %11 = icmp eq i32 %10, 0
  br label %12

12:                                               ; preds = %7, %1
  %13 = phi i1 [ true, %1 ], [ %11, %7 ]
  ret i1 %13
}

; Function Attrs: mustprogress nounwind uwtable
define hidden void @_ZNK13ReplacedNodes4dumpEP12outputStream(ptr noundef nonnull align 8 dereferenceable(8) %0, ptr noundef %1) #1 align 2 {
  %3 = alloca ptr, align 8
  %4 = alloca ptr, align 8
  %5 = alloca i32, align 4
  store ptr %0, ptr %3, align 8
  store ptr %1, ptr %4, align 8
  %6 = load ptr, ptr %3, align 8
  %7 = call noundef zeroext i1 @_ZNK13ReplacedNodes8is_emptyEv(ptr noundef nonnull align 8 dereferenceable(8) %6)
  br i1 %7, label %45, label %8

8:                                                ; preds = %2
  %9 = load ptr, ptr %4, align 8
  call void (ptr, ptr, ...) @_ZN12outputStream5printEPKcz(ptr noundef nonnull align 8 dereferenceable(56) %9, ptr noundef @.str)
  store i32 0, ptr %5, align 4
  br label %10

10:                                               ; preds = %41, %8
  %11 = load i32, ptr %5, align 4
  %12 = getelementptr inbounds %class.ReplacedNodes, ptr %6, i32 0, i32 0
  %13 = load ptr, ptr %12, align 8
  %14 = call noundef i32 @_ZNK17GrowableArrayBase6lengthEv(ptr noundef nonnull align 4 dereferenceable(8) %13)
  %15 = icmp slt i32 %11, %14
  br i1 %15, label %16, label %44

16:                                               ; preds = %10
  %17 = load ptr, ptr %4, align 8
  %18 = getelementptr inbounds %class.ReplacedNodes, ptr %6, i32 0, i32 0
  %19 = load ptr, ptr %18, align 8
  %20 = load i32, ptr %5, align 4
  %21 = call noundef nonnull align 8 dereferenceable(16) ptr @_ZN17GrowableArrayViewIN13ReplacedNodes12ReplacedNodeEE2atEi(ptr noundef nonnull align 8 dereferenceable(16) %19, i32 noundef %20)
  %22 = call noundef ptr @_ZNK13ReplacedNodes12ReplacedNode7initialEv(ptr noundef nonnull align 8 dereferenceable(16) %21)
  %23 = getelementptr inbounds %class.Node, ptr %22, i32 0, i32 7
  %24 = load i32, ptr %23, align 8
  %25 = getelementptr inbounds %class.ReplacedNodes, ptr %6, i32 0, i32 0
  %26 = load ptr, ptr %25, align 8
  %27 = load i32, ptr %5, align 4
  %28 = call noundef nonnull align 8 dereferenceable(16) ptr @_ZN17GrowableArrayViewIN13ReplacedNodes12ReplacedNodeEE2atEi(ptr noundef nonnull align 8 dereferenceable(16) %26, i32 noundef %27)
  %29 = call noundef ptr @_ZNK13ReplacedNodes12ReplacedNode8improvedEv(ptr noundef nonnull align 8 dereferenceable(16) %28)
  %30 = getelementptr inbounds %class.Node, ptr %29, i32 0, i32 7
  %31 = load i32, ptr %30, align 8
  call void (ptr, ptr, ...) @_ZN12outputStream5printEPKcz(ptr noundef nonnull align 8 dereferenceable(56) %17, ptr noundef @.str.4, i32 noundef %24, i32 noundef %31)
  %32 = load i32, ptr %5, align 4
  %33 = getelementptr inbounds %class.ReplacedNodes, ptr %6, i32 0, i32 0
  %34 = load ptr, ptr %33, align 8
  %35 = call noundef i32 @_ZNK17GrowableArrayBase6lengthEv(ptr noundef nonnull align 4 dereferenceable(8) %34)
  %36 = sub nsw i32 %35, 1
  %37 = icmp slt i32 %32, %36
  br i1 %37, label %38, label %40

38:                                               ; preds = %16
  %39 = load ptr, ptr %4, align 8
  call void (ptr, ptr, ...) @_ZN12outputStream5printEPKcz(ptr noundef nonnull align 8 dereferenceable(56) %39, ptr noundef @.str.5)
  br label %40

40:                                               ; preds = %38, %16
  br label %41

41:                                               ; preds = %40
  %42 = load i32, ptr %5, align 4
  %43 = add nsw i32 %42, 1
  store i32 %43, ptr %5, align 4
  br label %10, !llvm.loop !23

44:                                               ; preds = %10
  br label %45

45:                                               ; preds = %44, %2
  ret void
}