; Function Attrs: mustprogress nounwind uwtable
define hidden void @_ZNK13ReplacedNodes4dumpEP12outputStream(ptr nocapture noundef nonnull readonly align 8 dereferenceable(8) %0, ptr noundef %1) local_unnamed_addr #0 align 2 {
  %3 = load ptr, ptr %0, align 8
  %4 = icmp eq ptr %3, null
  br i1 %4, label %_ZNK13ReplacedNodes8is_emptyEv.exit.thread, label %_ZNK13ReplacedNodes8is_emptyEv.exit

_ZNK13ReplacedNodes8is_emptyEv.exit:              ; preds = %2
  %5 = load i32, ptr %3, align 4
  %6 = icmp eq i32 %5, 0
  br i1 %6, label %_ZNK13ReplacedNodes8is_emptyEv.exit.thread, label %7

7:                                                ; preds = %_ZNK13ReplacedNodes8is_emptyEv.exit
  tail call void (ptr, ptr, ...) @_ZN12outputStream5printEPKcz(ptr noundef nonnull align 8 dereferenceable(56) %1, ptr noundef nonnull @.str) #8
  %8 = load ptr, ptr %0, align 8
  %9 = load i32, ptr %8, align 4
  %10 = icmp sgt i32 %9, 0
  br i1 %10, label %.lr.ph, label %_ZNK13ReplacedNodes8is_emptyEv.exit.thread

.lr.ph:                                           ; preds = %7, %28
  %indvars.iv = phi i64 [ %indvars.iv.next, %28 ], [ 0, %7 ]
  %11 = phi ptr [ %30, %28 ], [ %8, %7 ]
  %12 = getelementptr inbounds i8, ptr %11, i64 8
  %13 = load ptr, ptr %12, align 8
  %14 = getelementptr inbounds %"class.ReplacedNodes::ReplacedNode", ptr %13, i64 %indvars.iv
  %15 = load ptr, ptr %14, align 8
  %16 = getelementptr inbounds i8, ptr %15, i64 40
  %17 = load i32, ptr %16, align 8
  %18 = getelementptr inbounds i8, ptr %14, i64 8
  %19 = load ptr, ptr %18, align 8
  %20 = getelementptr inbounds i8, ptr %19, i64 40
  %21 = load i32, ptr %20, align 8
  tail call void (ptr, ptr, ...) @_ZN12outputStream5printEPKcz(ptr noundef nonnull align 8 dereferenceable(56) %1, ptr noundef nonnull @.str.4, i32 noundef %17, i32 noundef %21) #8
  %22 = load ptr, ptr %0, align 8
  %23 = load i32, ptr %22, align 4
  %24 = add nsw i32 %23, -1
  %25 = sext i32 %24 to i64
  %26 = icmp slt i64 %indvars.iv, %25
  br i1 %26, label %27, label %28

27:                                               ; preds = %.lr.ph
  tail call void (ptr, ptr, ...) @_ZN12outputStream5printEPKcz(ptr noundef nonnull align 8 dereferenceable(56) %1, ptr noundef nonnull @.str.5) #8
  %.pre = load ptr, ptr %0, align 8
  %.pre10 = load i32, ptr %.pre, align 4
  br label %28

28:                                               ; preds = %.lr.ph, %27
  %29 = phi i32 [ %23, %.lr.ph ], [ %.pre10, %27 ]
  %30 = phi ptr [ %22, %.lr.ph ], [ %.pre, %27 ]
  %indvars.iv.next = add nuw nsw i64 %indvars.iv, 1
  %31 = sext i32 %29 to i64
  %32 = icmp slt i64 %indvars.iv.next, %31
  br i1 %32, label %.lr.ph, label %_ZNK13ReplacedNodes8is_emptyEv.exit.thread, !llvm.loop !26

_ZNK13ReplacedNodes8is_emptyEv.exit.thread:       ; preds = %28, %7, %2, %_ZNK13ReplacedNodes8is_emptyEv.exit
  ret void
}